; Function Attrs: nounwind uwtable
define dso_local ptr @virtual_getcwd(ptr noundef writeonly captures(address_is_null, ret: address, provenance) %0, i64 noundef %1) local_unnamed_addr #0 {
  %3 = load i64, ptr getelementptr inbounds nuw (i8, ptr @cwd_globals, i64 8), align 8, !tbaa !12
  %4 = icmp eq i64 %3, 0
  br i1 %4, label %5, label %8

5:                                                ; preds = %2
  %6 = tail call noalias ptr @_emalloc_8() #22
  store i8 47, ptr %6, align 1, !tbaa !11
  %7 = getelementptr inbounds nuw i8, ptr %6, i64 1
  store i8 0, ptr %7, align 1, !tbaa !11
  br label %virtual_getcwd_ex.exit

8:                                                ; preds = %2
  %9 = load ptr, ptr @cwd_globals, align 8, !tbaa !4
  %.not.i = icmp eq ptr %9, null
  br i1 %.not.i, label %virtual_getcwd_ex.exit, label %10

10:                                               ; preds = %8
  %11 = tail call noalias ptr @_estrdup(ptr noundef nonnull %9) #22
  br label %virtual_getcwd_ex.exit

virtual_getcwd_ex.exit:                           ; preds = %8, %5, %10
  %.012 = phi i64 [ 1, %5 ], [ %3, %10 ], [ 0, %8 ]
  %.0.i = phi ptr [ %6, %5 ], [ %11, %10 ], [ null, %8 ]
  %12 = icmp eq ptr %0, null
  br i1 %12, label %21, label %13

13:                                               ; preds = %virtual_getcwd_ex.exit
  %14 = add i64 %1, -1
  %15 = icmp ugt i64 %.012, %14
  br i1 %15, label %16, label %18

16:                                               ; preds = %13
  tail call void @_efree(ptr noundef %.0.i) #22
  %17 = tail call ptr @__errno_location() #25
  store i32 34, ptr %17, align 4, !tbaa !23
  br label %21

18:                                               ; preds = %13
  %.not = icmp eq ptr %.0.i, null
  br i1 %.not, label %21, label %19

19:                                               ; preds = %18
  %20 = add i64 %.012, 1
  tail call void @llvm.memcpy.p0.p0.i64(ptr nonnull align 1 %0, ptr nonnull align 1 %.0.i, i64 %20, i1 false)
  tail call void @_efree(ptr noundef nonnull %.0.i) #22
  br label %21

21:                                               ; preds = %18, %virtual_getcwd_ex.exit, %19, %16
  %.0 = phi ptr [ null, %16 ], [ %0, %19 ], [ %.0.i, %virtual_getcwd_ex.exit ], [ null, %18 ]
  ret ptr %.0
}